; Function Attrs: nounwind uwtable
define ptr @H5WB_actual_clear(ptr noundef captures(none) %0, i64 noundef %1) local_unnamed_addr #0 {
  %3 = getelementptr inbounds nuw i8, ptr %0, i64 16
  %4 = load ptr, ptr %3, align 8, !tbaa !11
  %.not.i = icmp eq ptr %4, null
  br i1 %.not.i, label %12, label %5

5:                                                ; preds = %2
  %6 = load ptr, ptr %0, align 8, !tbaa !7
  %.not24.i = icmp eq ptr %4, %6
  br i1 %.not24.i, label %12, label %7

7:                                                ; preds = %5
  %8 = getelementptr inbounds nuw i8, ptr %0, i64 32
  %9 = load i64, ptr %8, align 8, !tbaa !12
  %.not25.i = icmp ugt i64 %1, %9
  br i1 %.not25.i, label %10, label %30

10:                                               ; preds = %7
  %11 = tail call ptr @H5FL_blk_free(ptr noundef nonnull @H5_extra_buf_blk_free_list, ptr noundef nonnull %4) #3
  store ptr %11, ptr %3, align 8, !tbaa !11
  br label %12

12:                                               ; preds = %10, %5, %2
  %13 = getelementptr inbounds nuw i8, ptr %0, i64 8
  %14 = load i64, ptr %13, align 8, !tbaa !10
  %15 = icmp ugt i64 %1, %14
  br i1 %15, label %16, label %23

16:                                               ; preds = %12
  %17 = tail call noalias ptr @H5FL_blk_malloc(ptr noundef nonnull @H5_extra_buf_blk_free_list, i64 noundef %1) #3
  store ptr %17, ptr %3, align 8, !tbaa !11
  %18 = icmp eq ptr %17, null
  br i1 %18, label %.thread.i, label %.thread34.i

.thread.i:                                        ; preds = %16
  %19 = load i64, ptr @H5E_ATTR_g, align 8, !tbaa !3
  %20 = load i64, ptr @H5E_NOSPACE_g, align 8, !tbaa !3
  %21 = tail call i32 (ptr, ptr, i32, i64, i64, ptr, ...) @H5E_printf_stack(ptr noundef nonnull @.str, ptr noundef nonnull @__func__.H5WB_actual, i32 noundef 168, i64 noundef %19, i64 noundef %20, ptr noundef nonnull @.str.2) #3
  br label %26

.thread34.i:                                      ; preds = %16
  %22 = getelementptr inbounds nuw i8, ptr %0, i64 32
  store i64 %1, ptr %22, align 8, !tbaa !12
  br label %30

23:                                               ; preds = %12
  %24 = load ptr, ptr %0, align 8, !tbaa !7
  store ptr %24, ptr %3, align 8, !tbaa !11
  %25 = getelementptr inbounds nuw i8, ptr %0, i64 32
  store i64 0, ptr %25, align 8, !tbaa !12
  %.not26.i = icmp eq ptr %24, null
  br i1 %.not26.i, label %26, label %30

26:                                               ; preds = %.thread.i, %23
  %27 = load i64, ptr @H5E_ATTR_g, align 8, !tbaa !3
  %28 = load i64, ptr @H5E_NOSPACE_g, align 8, !tbaa !3
  %29 = tail call i32 (ptr, ptr, i32, i64, i64, ptr, ...) @H5E_printf_stack(ptr noundef nonnull @.str, ptr noundef nonnull @__func__.H5WB_actual_clear, i32 noundef 216, i64 noundef %27, i64 noundef %28, ptr noundef nonnull @.str.2) #3
  br label %32

30:                                               ; preds = %23, %.thread34.i, %7
  %.033.i = phi ptr [ %24, %23 ], [ %17, %.thread34.i ], [ %4, %7 ]
  %31 = getelementptr inbounds nuw i8, ptr %0, i64 24
  store i64 %1, ptr %31, align 8, !tbaa !13
  tail call void @llvm.memset.p0.i64(ptr nonnull align 1 %.033.i, i8 0, i64 %1, i1 false)
  br label %32

32:                                               ; preds = %30, %26
  %.0 = phi ptr [ null, %26 ], [ %.033.i, %30 ]
  ret ptr %.0
}